target datalayout = "e-m:e-p270:32:32-p271:32:32-p272:64:64-i64:64-i128:128-f80:128-n8:16:32:64-S128"
target triple = "x86_64-pc-linux-gnu"

; Function Attrs: mustprogress uwtable
define void @_ZN5folly4test21DeterministicSchedule4waitEPNS0_9SemaphoreE(ptr noundef %0) #6 align 2 {
  %2 = alloca ptr, align 8
  store ptr %0, ptr %2, align 8, !tbaa !176
  br label %3

3:                                                ; preds = %7, %1
  %4 = load ptr, ptr %2, align 8, !tbaa !176
  %5 = call noundef zeroext i1 @_ZN5folly4test21DeterministicSchedule7tryWaitEPNS0_9SemaphoreE(ptr noundef %4)
  %6 = xor i1 %5, true
  br i1 %6, label %7, label %8

7:                                                ; preds = %3
  br label %3, !llvm.loop !1113

8:                                                ; preds = %3
  ret void
}