; Function Attrs: mustprogress uwtable
define void @_ZN5folly4test21DeterministicSchedule4waitEPNS0_9SemaphoreE(ptr noundef %0) local_unnamed_addr #7 align 2 {
  br label %2

2:                                                ; preds = %2, %1
  %3 = tail call noundef zeroext i1 @_ZN5folly4test21DeterministicSchedule7tryWaitEPNS0_9SemaphoreE(ptr noundef %0)
  br i1 %3, label %4, label %2, !llvm.loop !421

4:                                                ; preds = %2
  ret void
}